target datalayout = "e-m:e-p270:32:32-p271:32:32-p272:64:64-i64:64-i128:128-f80:128-n8:16:32:64-S128"
target triple = "x86_64-pc-linux-gnu"

%"class.llvm::DwarfExpression" = type { ptr, i8, ptr, %"class.llvm::SmallVector", i64, i32, i16, %"class.std::optional" }
%"class.llvm::SmallVector" = type { %"class.llvm::SmallVectorImpl", %"struct.llvm::SmallVectorStorage" }
%"class.llvm::SmallVectorImpl" = type { %"class.llvm::SmallVectorTemplateBase" }
%"class.llvm::SmallVectorTemplateBase" = type { %"class.llvm::SmallVectorTemplateCommon" }
%"class.llvm::SmallVectorTemplateCommon" = type { %"class.llvm::SmallVectorBase" }
%"class.llvm::SmallVectorBase" = type { ptr, i32, i32 }
%"struct.llvm::SmallVectorStorage" = type { [32 x i8] }
%"class.std::optional" = type { %"struct.std::_Optional_base" }
%"struct.std::_Optional_base" = type { %"struct.std::_Optional_payload" }
%"struct.std::_Optional_payload" = type { %"struct.std::_Optional_payload_base" }
%"struct.std::_Optional_payload_base" = type { %"union.std::_Optional_payload_base<unsigned char>::_Storage", i8 }
%"union.std::_Optional_payload_base<unsigned char>::_Storage" = type { %"struct.std::_Optional_payload_base<unsigned char>::_Empty_byte" }
%"struct.std::_Optional_payload_base<unsigned char>::_Empty_byte" = type { i8 }

; Function Attrs: mustprogress nounwind uwtable
define dso_local void @_ZN4llvm15DwarfExpression18finalizeEntryValueEv(ptr noundef nonnull align 8 dereferenceable(88) %0) #0 align 2 {
  %2 = alloca ptr, align 8
  %3 = alloca i32, align 4
  store ptr %0, ptr %2, align 8
  %4 = load ptr, ptr %2, align 8
  %5 = load ptr, ptr %4, align 8
  %6 = getelementptr inbounds ptr, ptr %5, i64 6
  %7 = load ptr, ptr %6, align 8
  call void %7(ptr noundef nonnull align 8 dereferenceable(88) %4)
  %8 = getelementptr inbounds nuw %"class.llvm::DwarfExpression", ptr %4, i32 0, i32 2
  %9 = load ptr, ptr %8, align 8
  %10 = call noundef i32 @_ZNK4llvm16DwarfCompileUnit26getDwarf5OrGNULocationAtomENS_5dwarf12LocationAtomE(ptr noundef nonnull align 8 dereferenceable(696) %9, i32 noundef 163)
  %11 = trunc i32 %10 to i8
  %12 = load ptr, ptr %4, align 8
  %13 = getelementptr inbounds ptr, ptr %12, i64 0
  %14 = load ptr, ptr %13, align 8
  call void %14(ptr noundef nonnull align 8 dereferenceable(88) %4, i8 noundef zeroext %11, ptr noundef null)
  %15 = load ptr, ptr %4, align 8
  %16 = getelementptr inbounds ptr, ptr %15, i64 7
  %17 = load ptr, ptr %16, align 8
  %18 = call noundef i32 %17(ptr noundef nonnull align 8 dereferenceable(88) %4)
  store i32 %18, ptr %3, align 4
  %19 = load i32, ptr %3, align 4
  %20 = zext i32 %19 to i64
  %21 = load ptr, ptr %4, align 8
  %22 = getelementptr inbounds ptr, ptr %21, i64 2
  %23 = load ptr, ptr %22, align 8
  call void %23(ptr noundef nonnull align 8 dereferenceable(88) %4, i64 noundef %20)
  %24 = load ptr, ptr %4, align 8
  %25 = getelementptr inbounds ptr, ptr %24, i64 8
  %26 = load ptr, ptr %25, align 8
  call void %26(ptr noundef nonnull align 8 dereferenceable(88) %4)
  %27 = getelementptr inbounds nuw %"class.llvm::DwarfExpression", ptr %4, i32 0, i32 6
  %28 = load i16, ptr %27, align 4
  %29 = lshr i16 %28, 6
  %30 = and i16 %29, 7
  %31 = zext i16 %30 to i32
  %32 = and i32 %31, -2
  %33 = trunc i32 %32 to i16
  %34 = load i16, ptr %27, align 4
  %35 = and i16 %33, 7
  %36 = shl i16 %35, 6
  %37 = and i16 %34, -449
  %38 = or i16 %37, %36
  store i16 %38, ptr %27, align 4
  %39 = getelementptr inbounds nuw %"class.llvm::DwarfExpression", ptr %4, i32 0, i32 6
  %40 = load i16, ptr %39, align 4
  %41 = lshr i16 %40, 3
  %42 = and i16 %41, 7
  %43 = zext i16 %42 to i32
  %44 = getelementptr inbounds nuw %"class.llvm::DwarfExpression", ptr %4, i32 0, i32 6
  %45 = trunc i32 %43 to i16
  %46 = load i16, ptr %44, align 4
  %47 = and i16 %45, 7
  %48 = and i16 %46, -8
  %49 = or i16 %48, %47
  store i16 %49, ptr %44, align 4
  %50 = getelementptr inbounds nuw %"class.llvm::DwarfExpression", ptr %4, i32 0, i32 1
  store i8 0, ptr %50, align 8
  ret void
}