; Function Attrs: mustprogress nounwind uwtable
define dso_local void @_ZN4llvm15DwarfExpression18finalizeEntryValueEv(ptr noundef nonnull align 8 dereferenceable(88) %0) local_unnamed_addr #0 align 2 {
  %2 = load ptr, ptr %0, align 8
  %3 = getelementptr inbounds i8, ptr %2, i64 48
  %4 = load ptr, ptr %3, align 8
  tail call void %4(ptr noundef nonnull align 8 dereferenceable(88) %0) #13
  %5 = getelementptr inbounds nuw i8, ptr %0, i64 16
  %6 = load ptr, ptr %5, align 8
  %7 = tail call noundef i32 @_ZNK4llvm16DwarfCompileUnit26getDwarf5OrGNULocationAtomENS_5dwarf12LocationAtomE(ptr noundef nonnull align 8 dereferenceable(696) %6, i32 noundef 163) #13
  %8 = trunc i32 %7 to i8
  %9 = load ptr, ptr %0, align 8
  %10 = load ptr, ptr %9, align 8
  tail call void %10(ptr noundef nonnull align 8 dereferenceable(88) %0, i8 noundef zeroext %8, ptr noundef null) #13
  %11 = load ptr, ptr %0, align 8
  %12 = getelementptr inbounds i8, ptr %11, i64 56
  %13 = load ptr, ptr %12, align 8
  %14 = tail call noundef i32 %13(ptr noundef nonnull align 8 dereferenceable(88) %0) #13
  %15 = zext i32 %14 to i64
  %16 = load ptr, ptr %0, align 8
  %17 = getelementptr inbounds i8, ptr %16, i64 16
  %18 = load ptr, ptr %17, align 8
  tail call void %18(ptr noundef nonnull align 8 dereferenceable(88) %0, i64 noundef %15) #13
  %19 = load ptr, ptr %0, align 8
  %20 = getelementptr inbounds i8, ptr %19, i64 64
  %21 = load ptr, ptr %20, align 8
  tail call void %21(ptr noundef nonnull align 8 dereferenceable(88) %0) #13
  %22 = getelementptr inbounds nuw i8, ptr %0, i64 84
  %23 = load i16, ptr %22, align 4
  %24 = lshr i16 %23, 3
  %25 = and i16 %24, 7
  %26 = and i16 %23, -72
  %27 = or disjoint i16 %25, %26
  store i16 %27, ptr %22, align 4
  %28 = getelementptr inbounds nuw i8, ptr %0, i64 8
  store i8 0, ptr %28, align 8
  ret void
}